; Function Attrs: mustprogress nounwind uwtable
define hidden noundef i32 @_ZN13CompileBroker26assign_compile_id_unlockedEP6ThreadRK12methodHandlei(ptr noundef %0, ptr nocapture noundef nonnull readnone align 8 dereferenceable(16) %1, i32 noundef %2) local_unnamed_addr #0 align 2 {
  %4 = load ptr, ptr @MethodCompileQueue_lock, align 8
  %.not.i.i = icmp eq ptr %4, null
  br i1 %.not.i.i, label %_ZN11MutexLockerC2EP6ThreadP5MutexNS2_18SafepointCheckFlagE.exit.thread, label %6

_ZN11MutexLockerC2EP6ThreadP5MutexNS2_18SafepointCheckFlagE.exit.thread: ; preds = %3
  %5 = tail call noundef i32 asm sideeffect "lock xaddl $0,($2)", "=r,0,r,~{cc},~{memory},~{dirflag},~{fpsr},~{flags}"(i32 1, ptr nonnull @_ZN13CompileBroker15_compilation_idE) #20, !srcloc !20
  br label %_ZN11MutexLockerD2Ev.exit

6:                                                ; preds = %3
  tail call void @_ZN5Mutex4lockEP6Thread(ptr noundef nonnull align 8 dereferenceable(104) %4, ptr noundef %0) #20
  %7 = tail call noundef i32 asm sideeffect "lock xaddl $0,($2)", "=r,0,r,~{cc},~{memory},~{dirflag},~{fpsr},~{flags}"(i32 1, ptr nonnull @_ZN13CompileBroker15_compilation_idE) #20, !srcloc !20
  tail call void @_ZN5Mutex6unlockEv(ptr noundef nonnull align 8 dereferenceable(104) %4) #20
  br label %_ZN11MutexLockerD2Ev.exit

_ZN11MutexLockerD2Ev.exit:                        ; preds = %_ZN11MutexLockerC2EP6ThreadP5MutexNS2_18SafepointCheckFlagE.exit.thread, %6
  %.in = phi i32 [ %5, %_ZN11MutexLockerC2EP6ThreadP5MutexNS2_18SafepointCheckFlagE.exit.thread ], [ %7, %6 ]
  %8 = add nsw i32 %.in, 1
  ret i32 %8
}